ARM GAS  C:\Users\sebas\AppData\Local\Temp\ccVu75ko.s 			page 1


   1              		.syntax unified
   2              		.cpu cortex-m3
   3              		.fpu softvfp
   4              		.eabi_attribute 20, 1
   5              		.eabi_attribute 21, 1
   6              		.eabi_attribute 23, 3
   7              		.eabi_attribute 24, 1
   8              		.eabi_attribute 25, 1
   9              		.eabi_attribute 26, 1
  10              		.eabi_attribute 30, 6
  11              		.eabi_attribute 34, 1
  12              		.eabi_attribute 18, 4
  13              		.thumb
  14              		.syntax unified
  15              		.file	"main.c"
  16              		.text
  17              	.Ltext0:
  18              		.cfi_sections	.debug_frame
  19              		.section	.rodata
  20              		.align	2
  21              	.LC0:
  22 0000 256400   		.ascii	"%d\000"
  23 0003 00       		.align	2
  24              	.LC1:
  25 0004 0A00     		.ascii	"\012\000"
  26              		.section	.text.main,"ax",%progbits
  27              		.align	2
  28              		.global	main
  29              		.thumb
  30              		.thumb_func
  31              		.type	main, %function
  32              	main:
  33              	.LFB64:
  34              		.file 1 "main.c"
   1:main.c        **** /*******************************************************************************
   2:main.c        **** * File: main.c
   3:main.c        **** *
   4:main.c        **** * Version: 1.2
   5:main.c        **** *
   6:main.c        **** * Description: 
   7:main.c        **** *   This is a source code for basic functionality of IDAC8.
   8:main.c        **** *
   9:main.c        **** ********************************************************************************
  10:main.c        **** * Copyright 2012, Cypress Semiconductor Corporation. All rights reserved.
  11:main.c        **** * This software is owned by Cypress Semiconductor Corporation and is protected
  12:main.c        **** * by and subject to worldwide patent and copyright laws and treaties.
  13:main.c        **** * Therefore, you may use this software only as provided in the license agreement
  14:main.c        **** * accompanying the software package from which you obtained this software.
  15:main.c        **** * CYPRESS AND ITS SUPPLIERS MAKE NO WARRANTY OF ANY KIND, EXPRESS OR IMPLIED,
  16:main.c        **** * WITH REGARD TO THIS SOFTWARE, INCLUDING, BUT NOT LIMITED TO, NONINFRINGEMENT,
  17:main.c        **** * IMPLIED WARRANTIES OF MERCHANTABILITY AND FITNESS FOR A PARTICULAR PURPOSE.
  18:main.c        **** *******************************************************************************/
  19:main.c        **** 
  20:main.c        **** #include <project.h>
  21:main.c        **** #include <stdio.h>
  22:main.c        **** 
  23:main.c        **** 
ARM GAS  C:\Users\sebas\AppData\Local\Temp\ccVu75ko.s 			page 2


  24:main.c        **** /*******************************************************************************
  25:main.c        **** * Function Name: main
  26:main.c        **** ********************************************************************************
  27:main.c        **** *
  28:main.c        **** * Summary:
  29:main.c        **** *  Main function performs following functions:
  30:main.c        **** *   1: Initializes the LCD and clears the display
  31:main.c        **** *   2: Start the IDAC
  32:main.c        **** *   3: IDAC range is set to 255uA and value to 100
  33:main.c        **** *   4: Prints test name on LCD
  34:main.c        **** *
  35:main.c        **** * Parameters:
  36:main.c        **** *  None.
  37:main.c        **** *
  38:main.c        **** * Return:
  39:main.c        **** *  None.
  40:main.c        **** *
  41:main.c        **** *******************************************************************************/
  42:main.c        **** int main()
  43:main.c        **** {
  35              		.loc 1 43 0
  36              		.cfi_startproc
  37              		@ args = 0, pretend = 0, frame = 16
  38              		@ frame_needed = 1, uses_anonymous_args = 0
  39 0000 80B5     		push	{r7, lr}
  40              		.cfi_def_cfa_offset 8
  41              		.cfi_offset 7, -8
  42              		.cfi_offset 14, -4
  43 0002 84B0     		sub	sp, sp, #16
  44              		.cfi_def_cfa_offset 24
  45 0004 00AF     		add	r7, sp, #0
  46              		.cfi_def_cfa_register 7
  44:main.c        ****     char ch = 'A';
  47              		.loc 1 44 0
  48 0006 4123     		movs	r3, #65
  49 0008 FB73     		strb	r3, [r7, #15]
  45:main.c        ****     int16 output;
  46:main.c        **** 	char8 str[10];
  47:main.c        ****     /* Start the IDAC component */
  48:main.c        ****     IDAC8_1_Start();    
  50              		.loc 1 48 0
  51 000a FFF7FEFF 		bl	IDAC8_1_Start
  49:main.c        ****     ADC_DelSig_1_Start();
  52              		.loc 1 49 0
  53 000e FFF7FEFF 		bl	ADC_DelSig_1_Start
  50:main.c        ****     UART_1_Start();
  54              		.loc 1 50 0
  55 0012 FFF7FEFF 		bl	UART_1_Start
  51:main.c        ****     
  52:main.c        ****    
  53:main.c        ****     /* Sets the IDAC full scale range to 255uA */
  54:main.c        ****     IDAC8_1_SetRange(IDAC8_1_RANGE_2mA);    
  56              		.loc 1 54 0
  57 0016 0820     		movs	r0, #8
  58 0018 FFF7FEFF 		bl	IDAC8_1_SetRange
  55:main.c        **** 
  56:main.c        ****     /* Sets the IDAC value to 100 */
ARM GAS  C:\Users\sebas\AppData\Local\Temp\ccVu75ko.s 			page 3


  57:main.c        ****     IDAC8_1_SetValue(253u);     
  59              		.loc 1 57 0
  60 001c FD20     		movs	r0, #253
  61 001e FFF7FEFF 		bl	IDAC8_1_SetValue
  58:main.c        ****     
  59:main.c        ****     /* Start the ADC conversion */
  60:main.c        ****     ADC_DelSig_1_StartConvert();
  62              		.loc 1 60 0
  63 0022 FFF7FEFF 		bl	ADC_DelSig_1_StartConvert
  64              	.L3:
  61:main.c        **** 
  62:main.c        **** //  /*  
  63:main.c        ****     
  64:main.c        ****     
  65:main.c        **** // */
  66:main.c        ****     
  67:main.c        ****     
  68:main.c        ****     for(;;)
  69:main.c        ****     {
  70:main.c        ****     if(ADC_DelSig_1_IsEndConversion(ADC_DelSig_1_RETURN_STATUS))
  65              		.loc 1 70 0
  66 0026 0120     		movs	r0, #1
  67 0028 FFF7FEFF 		bl	ADC_DelSig_1_IsEndConversion
  68 002c 0346     		mov	r3, r0
  69 002e 002B     		cmp	r3, #0
  70 0030 18D0     		beq	.L2
  71:main.c        ****         {
  72:main.c        ****             output = ADC_DelSig_1_GetResult16();
  71              		.loc 1 72 0
  72 0032 FFF7FEFF 		bl	ADC_DelSig_1_GetResult16
  73 0036 0346     		mov	r3, r0
  74 0038 BB81     		strh	r3, [r7, #12]	@ movhi
  73:main.c        **** 			output = ADC_DelSig_1_CountsTo_mVolts(output) ;
  75              		.loc 1 73 0
  76 003a B7F90C30 		ldrsh	r3, [r7, #12]
  77 003e 1846     		mov	r0, r3
  78 0040 FFF7FEFF 		bl	ADC_DelSig_1_CountsTo_mVolts
  79 0044 0346     		mov	r3, r0
  80 0046 BB81     		strh	r3, [r7, #12]	@ movhi
  74:main.c        **** 			sprintf(str, "%d", output);
  81              		.loc 1 74 0
  82 0048 B7F90C20 		ldrsh	r2, [r7, #12]
  83 004c 3B46     		mov	r3, r7
  84 004e 0749     		ldr	r1, .L4
  85 0050 1846     		mov	r0, r3
  86 0052 FFF7FEFF 		bl	sprintf
  75:main.c        ****             CyDelay(100u);
  87              		.loc 1 75 0
  88 0056 6420     		movs	r0, #100
  89 0058 FFF7FEFF 		bl	CyDelay
  76:main.c        ****             UART_1_PutString(str);
  90              		.loc 1 76 0
  91 005c 3B46     		mov	r3, r7
  92 005e 1846     		mov	r0, r3
  93 0060 FFF7FEFF 		bl	UART_1_PutString
  94              	.L2:
  77:main.c        ****         }
ARM GAS  C:\Users\sebas\AppData\Local\Temp\ccVu75ko.s 			page 4


  78:main.c        ****         UART_1_PutString("\n"); 
  95              		.loc 1 78 0
  96 0064 0248     		ldr	r0, .L4+4
  97 0066 FFF7FEFF 		bl	UART_1_PutString
  79:main.c        ****     }
  98              		.loc 1 79 0
  99 006a DCE7     		b	.L3
 100              	.L5:
 101              		.align	2
 102              	.L4:
 103 006c 00000000 		.word	.LC0
 104 0070 04000000 		.word	.LC1
 105              		.cfi_endproc
 106              	.LFE64:
 107              		.size	main, .-main
 108              		.text
 109              	.Letext0:
 110              		.file 2 "c:\\program files (x86)\\cypress\\psoc creator\\4.2\\psoc creator\\import\\gnu\\arm\\5.4.
 111              		.file 3 "c:\\program files (x86)\\cypress\\psoc creator\\4.2\\psoc creator\\import\\gnu\\arm\\5.4.
 112              		.file 4 "Generated_Source\\PSoC5/cytypes.h"
 113              		.file 5 "Generated_Source\\PSoC5/core_cm3.h"